target datalayout = "e-m:e-p270:32:32-p271:32:32-p272:64:64-i64:64-i128:128-f80:128-n8:16:32:64-S128"
target triple = "x86_64-pc-linux-gnu"

%struct.prov_drbg_st = type { ptr, ptr, ptr, ptr, ptr, ptr, ptr, ptr, ptr, ptr, ptr, ptr, ptr, ptr, i32, i16, i32, i64, i64, i64, i64, i64, i64, i64, i32, i32, i64, i64, i32, i32, i32, i64, i32, ptr, ptr, ptr, ptr, ptr, ptr }
%struct.rand_drbg_hash_st = type { %struct.PROV_DIGEST, ptr, i64, [111 x i8], [111 x i8], [111 x i8] }
%struct.PROV_DIGEST = type { ptr, ptr, ptr }

; Function Attrs: nounwind uwtable
define internal i32 @hash_df(ptr noundef %0, ptr noundef %1, i8 noundef zeroext %2, ptr noundef %3, i64 noundef %4, ptr noundef %5, i64 noundef %6, ptr noundef %7, i64 noundef %8) #0 {
  %10 = alloca i32, align 4
  %11 = alloca ptr, align 8
  %12 = alloca ptr, align 8
  %13 = alloca i8, align 1
  %14 = alloca ptr, align 8
  %15 = alloca i64, align 8
  %16 = alloca ptr, align 8
  %17 = alloca i64, align 8
  %18 = alloca ptr, align 8
  %19 = alloca i64, align 8
  %20 = alloca ptr, align 8
  %21 = alloca ptr, align 8
  %22 = alloca ptr, align 8
  %23 = alloca [6 x i8], align 1
  %24 = alloca i32, align 4
  %25 = alloca i64, align 8
  %26 = alloca i64, align 8
  %27 = alloca i32, align 4
  store ptr %0, ptr %11, align 8, !tbaa !9
  store ptr %1, ptr %12, align 8, !tbaa !26
  store i8 %2, ptr %13, align 1, !tbaa !33
  store ptr %3, ptr %14, align 8, !tbaa !26
  store i64 %4, ptr %15, align 8, !tbaa !28
  store ptr %5, ptr %16, align 8, !tbaa !26
  store i64 %6, ptr %17, align 8, !tbaa !28
  store ptr %7, ptr %18, align 8, !tbaa !26
  store i64 %8, ptr %19, align 8, !tbaa !28
  call void @llvm.lifetime.start.p0(i64 8, ptr %20) #4
  %28 = load ptr, ptr %11, align 8, !tbaa !9
  %29 = getelementptr inbounds nuw %struct.prov_drbg_st, ptr %28, i32 0, i32 33
  %30 = load ptr, ptr %29, align 8, !tbaa !11
  store ptr %30, ptr %20, align 8, !tbaa !17
  call void @llvm.lifetime.start.p0(i64 8, ptr %21) #4
  %31 = load ptr, ptr %20, align 8, !tbaa !17
  %32 = getelementptr inbounds nuw %struct.rand_drbg_hash_st, ptr %31, i32 0, i32 1
  %33 = load ptr, ptr %32, align 8, !tbaa !19
  store ptr %33, ptr %21, align 8, !tbaa !45
  call void @llvm.lifetime.start.p0(i64 8, ptr %22) #4
  %34 = load ptr, ptr %20, align 8, !tbaa !17
  %35 = getelementptr inbounds nuw %struct.rand_drbg_hash_st, ptr %34, i32 0, i32 5
  %36 = getelementptr inbounds [111 x i8], ptr %35, i64 0, i64 0
  store ptr %36, ptr %22, align 8, !tbaa !26
  call void @llvm.lifetime.start.p0(i64 6, ptr %23) #4
  call void @llvm.lifetime.start.p0(i64 4, ptr %24) #4
  store i32 0, ptr %24, align 4, !tbaa !25
  call void @llvm.lifetime.start.p0(i64 8, ptr %25) #4
  %37 = load ptr, ptr %11, align 8, !tbaa !9
  %38 = getelementptr inbounds nuw %struct.prov_drbg_st, ptr %37, i32 0, i32 31
  %39 = load i64, ptr %38, align 8, !tbaa !38
  store i64 %39, ptr %25, align 8, !tbaa !28
  call void @llvm.lifetime.start.p0(i64 8, ptr %26) #4
  %40 = load i64, ptr %25, align 8, !tbaa !28
  %41 = mul i64 %40, 8
  store i64 %41, ptr %26, align 8, !tbaa !28
  %42 = load i32, ptr %24, align 4, !tbaa !25
  %43 = add nsw i32 %42, 1
  store i32 %43, ptr %24, align 4, !tbaa !25
  %44 = sext i32 %42 to i64
  %45 = getelementptr inbounds [6 x i8], ptr %23, i64 0, i64 %44
  store i8 1, ptr %45, align 1, !tbaa !33
  %46 = load i64, ptr %26, align 8, !tbaa !28
  %47 = lshr i64 %46, 24
  %48 = and i64 %47, 255
  %49 = trunc i64 %48 to i8
  %50 = load i32, ptr %24, align 4, !tbaa !25
  %51 = add nsw i32 %50, 1
  store i32 %51, ptr %24, align 4, !tbaa !25
  %52 = sext i32 %50 to i64
  %53 = getelementptr inbounds [6 x i8], ptr %23, i64 0, i64 %52
  store i8 %49, ptr %53, align 1, !tbaa !33
  %54 = load i64, ptr %26, align 8, !tbaa !28
  %55 = lshr i64 %54, 16
  %56 = and i64 %55, 255
  %57 = trunc i64 %56 to i8
  %58 = load i32, ptr %24, align 4, !tbaa !25
  %59 = add nsw i32 %58, 1
  store i32 %59, ptr %24, align 4, !tbaa !25
  %60 = sext i32 %58 to i64
  %61 = getelementptr inbounds [6 x i8], ptr %23, i64 0, i64 %60
  store i8 %57, ptr %61, align 1, !tbaa !33
  %62 = load i64, ptr %26, align 8, !tbaa !28
  %63 = lshr i64 %62, 8
  %64 = and i64 %63, 255
  %65 = trunc i64 %64 to i8
  %66 = load i32, ptr %24, align 4, !tbaa !25
  %67 = add nsw i32 %66, 1
  store i32 %67, ptr %24, align 4, !tbaa !25
  %68 = sext i32 %66 to i64
  %69 = getelementptr inbounds [6 x i8], ptr %23, i64 0, i64 %68
  store i8 %65, ptr %69, align 1, !tbaa !33
  %70 = load i64, ptr %26, align 8, !tbaa !28
  %71 = and i64 %70, 255
  %72 = trunc i64 %71 to i8
  %73 = load i32, ptr %24, align 4, !tbaa !25
  %74 = add nsw i32 %73, 1
  store i32 %74, ptr %24, align 4, !tbaa !25
  %75 = sext i32 %73 to i64
  %76 = getelementptr inbounds [6 x i8], ptr %23, i64 0, i64 %75
  store i8 %72, ptr %76, align 1, !tbaa !33
  %77 = load i8, ptr %13, align 1, !tbaa !33
  %78 = zext i8 %77 to i32
  %79 = icmp ne i32 %78, 255
  br i1 %79, label %80, label %86

80:                                               ; preds = %9
  %81 = load i8, ptr %13, align 1, !tbaa !33
  %82 = load i32, ptr %24, align 4, !tbaa !25
  %83 = add nsw i32 %82, 1
  store i32 %83, ptr %24, align 4, !tbaa !25
  %84 = sext i32 %82 to i64
  %85 = getelementptr inbounds [6 x i8], ptr %23, i64 0, i64 %84
  store i8 %81, ptr %85, align 1, !tbaa !33
  br label %86

86:                                               ; preds = %80, %9
  br label %87

87:                                               ; preds = %162, %86
  %88 = load ptr, ptr %21, align 8, !tbaa !45
  %89 = load ptr, ptr %20, align 8, !tbaa !17
  %90 = getelementptr inbounds nuw %struct.rand_drbg_hash_st, ptr %89, i32 0, i32 0
  %91 = call ptr @ossl_prov_digest_md(ptr noundef %90)
  %92 = call i32 @EVP_DigestInit_ex(ptr noundef %88, ptr noundef %91, ptr noundef null)
  %93 = icmp ne i32 %92, 0
  br i1 %93, label %94, label %125

94:                                               ; preds = %87
  %95 = load ptr, ptr %21, align 8, !tbaa !45
  %96 = getelementptr inbounds [6 x i8], ptr %23, i64 0, i64 0
  %97 = load i32, ptr %24, align 4, !tbaa !25
  %98 = sext i32 %97 to i64
  %99 = call i32 @EVP_DigestUpdate(ptr noundef %95, ptr noundef %96, i64 noundef %98)
  %100 = icmp ne i32 %99, 0
  br i1 %100, label %101, label %125

101:                                              ; preds = %94
  %102 = load ptr, ptr %21, align 8, !tbaa !45
  %103 = load ptr, ptr %14, align 8, !tbaa !26
  %104 = load i64, ptr %15, align 8, !tbaa !28
  %105 = call i32 @EVP_DigestUpdate(ptr noundef %102, ptr noundef %103, i64 noundef %104)
  %106 = icmp ne i32 %105, 0
  br i1 %106, label %107, label %125

107:                                              ; preds = %101
  %108 = load ptr, ptr %16, align 8, !tbaa !26
  %109 = icmp eq ptr %108, null
  br i1 %109, label %116, label %110

110:                                              ; preds = %107
  %111 = load ptr, ptr %21, align 8, !tbaa !45
  %112 = load ptr, ptr %16, align 8, !tbaa !26
  %113 = load i64, ptr %17, align 8, !tbaa !28
  %114 = call i32 @EVP_DigestUpdate(ptr noundef %111, ptr noundef %112, i64 noundef %113)
  %115 = icmp ne i32 %114, 0
  br i1 %115, label %116, label %125

116:                                              ; preds = %110, %107
  %117 = load ptr, ptr %18, align 8, !tbaa !26
  %118 = icmp eq ptr %117, null
  br i1 %118, label %126, label %119

119:                                              ; preds = %116
  %120 = load ptr, ptr %21, align 8, !tbaa !45
  %121 = load ptr, ptr %18, align 8, !tbaa !26
  %122 = load i64, ptr %19, align 8, !tbaa !28
  %123 = call i32 @EVP_DigestUpdate(ptr noundef %120, ptr noundef %121, i64 noundef %122)
  %124 = icmp ne i32 %123, 0
  br i1 %124, label %126, label %125

125:                                              ; preds = %119, %110, %101, %94, %87
  store i32 0, ptr %10, align 4
  store i32 1, ptr %27, align 4
  br label %172

126:                                              ; preds = %119, %116
  %127 = load i64, ptr %25, align 8, !tbaa !28
  %128 = load ptr, ptr %20, align 8, !tbaa !17
  %129 = getelementptr inbounds nuw %struct.rand_drbg_hash_st, ptr %128, i32 0, i32 2
  %130 = load i64, ptr %129, align 8, !tbaa !46
  %131 = icmp ult i64 %127, %130
  br i1 %131, label %132, label %146

132:                                              ; preds = %126
  %133 = load ptr, ptr %21, align 8, !tbaa !45
  %134 = load ptr, ptr %22, align 8, !tbaa !26
  %135 = call i32 @EVP_DigestFinal(ptr noundef %133, ptr noundef %134, ptr noundef null)
  %136 = icmp ne i32 %135, 0
  br i1 %136, label %138, label %137

137:                                              ; preds = %132
  store i32 0, ptr %10, align 4
  store i32 1, ptr %27, align 4
  br label %172

138:                                              ; preds = %132
  %139 = load ptr, ptr %12, align 8, !tbaa !26
  %140 = load ptr, ptr %22, align 8, !tbaa !26
  %141 = load i64, ptr %25, align 8, !tbaa !28
  call void @llvm.memcpy.p0.p0.i64(ptr align 1 %139, ptr align 1 %140, i64 %141, i1 false)
  %142 = load ptr, ptr %22, align 8, !tbaa !26
  %143 = load ptr, ptr %20, align 8, !tbaa !17
  %144 = getelementptr inbounds nuw %struct.rand_drbg_hash_st, ptr %143, i32 0, i32 2
  %145 = load i64, ptr %144, align 8, !tbaa !46
  call void @OPENSSL_cleanse(ptr noundef %142, i64 noundef %145)
  br label %171

146:                                              ; preds = %126
  %147 = load ptr, ptr %21, align 8, !tbaa !45
  %148 = load ptr, ptr %12, align 8, !tbaa !26
  %149 = call i32 @EVP_DigestFinal(ptr noundef %147, ptr noundef %148, ptr noundef null)
  %150 = icmp ne i32 %149, 0
  br i1 %150, label %152, label %151

151:                                              ; preds = %146
  store i32 0, ptr %10, align 4
  store i32 1, ptr %27, align 4
  br label %172

152:                                              ; preds = %146
  br label %153

153:                                              ; preds = %152
  %154 = load ptr, ptr %20, align 8, !tbaa !17
  %155 = getelementptr inbounds nuw %struct.rand_drbg_hash_st, ptr %154, i32 0, i32 2
  %156 = load i64, ptr %155, align 8, !tbaa !46
  %157 = load i64, ptr %25, align 8, !tbaa !28
  %158 = sub i64 %157, %156
  store i64 %158, ptr %25, align 8, !tbaa !28
  %159 = load i64, ptr %25, align 8, !tbaa !28
  %160 = icmp eq i64 %159, 0
  br i1 %160, label %161, label %162

161:                                              ; preds = %153
  br label %171

162:                                              ; preds = %153
  %163 = getelementptr inbounds [6 x i8], ptr %23, i64 0, i64 0
  %164 = load i8, ptr %163, align 1, !tbaa !33
  %165 = add i8 %164, 1
  store i8 %165, ptr %163, align 1, !tbaa !33
  %166 = load ptr, ptr %20, align 8, !tbaa !17
  %167 = getelementptr inbounds nuw %struct.rand_drbg_hash_st, ptr %166, i32 0, i32 2
  %168 = load i64, ptr %167, align 8, !tbaa !46
  %169 = load ptr, ptr %12, align 8, !tbaa !26
  %170 = getelementptr inbounds nuw i8, ptr %169, i64 %168
  store ptr %170, ptr %12, align 8, !tbaa !26
  br label %87

171:                                              ; preds = %161, %138
  store i32 1, ptr %10, align 4
  store i32 1, ptr %27, align 4
  br label %172

172:                                              ; preds = %171, %151, %137, %125
  call void @llvm.lifetime.end.p0(i64 8, ptr %26) #4
  call void @llvm.lifetime.end.p0(i64 8, ptr %25) #4
  call void @llvm.lifetime.end.p0(i64 4, ptr %24) #4
  call void @llvm.lifetime.end.p0(i64 6, ptr %23) #4
  call void @llvm.lifetime.end.p0(i64 8, ptr %22) #4
  call void @llvm.lifetime.end.p0(i64 8, ptr %21) #4
  call void @llvm.lifetime.end.p0(i64 8, ptr %20) #4
  %173 = load i32, ptr %10, align 4
  ret i32 %173
}