; Function Attrs: nounwind uwtable
define internal fastcc range(i32 0, 2) i32 @hash_df(i64 %.224.val, ptr %.240.val, ptr noundef %0, i8 noundef zeroext range(i8 -1, 2) %1, ptr noundef %2, i64 noundef %3, ptr noundef %4, i64 noundef %5, ptr noundef %6, i64 noundef %7) unnamed_addr #0 {
  %9 = alloca [6 x i8], align 1
  %10 = getelementptr inbounds nuw i8, ptr %.240.val, i64 24
  %11 = load ptr, ptr %10, align 8, !tbaa !12
  %12 = getelementptr inbounds nuw i8, ptr %.240.val, i64 262
  call void @llvm.lifetime.start.p0(i64 6, ptr nonnull %9) #6
  %13 = shl i64 %.224.val, 3
  store i8 1, ptr %9, align 1, !tbaa !22
  %14 = lshr i64 %13, 24
  %15 = trunc i64 %14 to i8
  %16 = getelementptr inbounds nuw i8, ptr %9, i64 1
  store i8 %15, ptr %16, align 1, !tbaa !22
  %17 = lshr i64 %13, 16
  %18 = trunc i64 %17 to i8
  %19 = getelementptr inbounds nuw i8, ptr %9, i64 2
  store i8 %18, ptr %19, align 1, !tbaa !22
  %20 = lshr i64 %13, 8
  %21 = trunc i64 %20 to i8
  %22 = getelementptr inbounds nuw i8, ptr %9, i64 3
  store i8 %21, ptr %22, align 1, !tbaa !22
  %23 = trunc i64 %13 to i8
  %24 = getelementptr inbounds nuw i8, ptr %9, i64 4
  store i8 %23, ptr %24, align 1, !tbaa !22
  %.not = icmp eq i8 %1, -1
  br i1 %.not, label %27, label %25

25:                                               ; preds = %8
  %26 = getelementptr inbounds nuw i8, ptr %9, i64 5
  store i8 %1, ptr %26, align 1, !tbaa !22
  br label %27

27:                                               ; preds = %25, %8
  %.049 = phi i64 [ 6, %25 ], [ 5, %8 ]
  %28 = tail call ptr @ossl_prov_digest_md(ptr noundef nonnull %.240.val) #6
  %29 = tail call i32 @EVP_DigestInit_ex(ptr noundef %11, ptr noundef %28, ptr noundef null) #6
  %.not543 = icmp eq i32 %29, 0
  br i1 %.not543, label %.loopexit, label %.lr.ph

.lr.ph:                                           ; preds = %27
  %30 = icmp eq ptr %4, null
  %31 = icmp eq ptr %6, null
  %32 = getelementptr inbounds nuw i8, ptr %.240.val, i64 32
  br i1 %30, label %.lr.ph.split.us, label %.lr.ph.split

.lr.ph.split.us:                                  ; preds = %.lr.ph
  br i1 %31, label %.lr.ph.split.us.split.us, label %.lr.ph.split.us.split

.lr.ph.split.us.split.us:                         ; preds = %.lr.ph.split.us, %45
  %.0485.us.us = phi i64 [ %43, %45 ], [ %.224.val, %.lr.ph.split.us ]
  %.0504.us.us = phi ptr [ %48, %45 ], [ %0, %.lr.ph.split.us ]
  %33 = call i32 @EVP_DigestUpdate(ptr noundef %11, ptr noundef nonnull %9, i64 noundef %.049) #6
  %.not55.us.us = icmp eq i32 %33, 0
  br i1 %.not55.us.us, label %.loopexit, label %34

34:                                               ; preds = %.lr.ph.split.us.split.us
  %35 = call i32 @EVP_DigestUpdate(ptr noundef %11, ptr noundef %2, i64 noundef %3) #6
  %.not56.us.us = icmp eq i32 %35, 0
  br i1 %.not56.us.us, label %.loopexit, label %36

36:                                               ; preds = %34
  %37 = load i64, ptr %32, align 8, !tbaa !32
  %38 = icmp ult i64 %.0485.us.us, %37
  br i1 %38, label %.split.us, label %39

39:                                               ; preds = %36
  %40 = call i32 @EVP_DigestFinal(ptr noundef %11, ptr noundef %.0504.us.us, ptr noundef null) #6
  %.not59.us.us = icmp eq i32 %40, 0
  br i1 %.not59.us.us, label %.loopexit, label %41

41:                                               ; preds = %39
  %42 = load i64, ptr %32, align 8, !tbaa !32
  %43 = sub i64 %.0485.us.us, %42
  %44 = icmp eq i64 %43, 0
  br i1 %44, label %.loopexit, label %45

45:                                               ; preds = %41
  %46 = load i8, ptr %9, align 1, !tbaa !22
  %47 = add i8 %46, 1
  store i8 %47, ptr %9, align 1, !tbaa !22
  %48 = getelementptr inbounds nuw i8, ptr %.0504.us.us, i64 %42
  %49 = call ptr @ossl_prov_digest_md(ptr noundef nonnull %.240.val) #6
  %50 = call i32 @EVP_DigestInit_ex(ptr noundef %11, ptr noundef %49, ptr noundef null) #6
  %.not54.us.us = icmp eq i32 %50, 0
  br i1 %.not54.us.us, label %.loopexit, label %.lr.ph.split.us.split.us

.lr.ph.split.us.split:                            ; preds = %.lr.ph.split.us, %65
  %.0485.us = phi i64 [ %63, %65 ], [ %.224.val, %.lr.ph.split.us ]
  %.0504.us = phi ptr [ %68, %65 ], [ %0, %.lr.ph.split.us ]
  %51 = call i32 @EVP_DigestUpdate(ptr noundef %11, ptr noundef nonnull %9, i64 noundef %.049) #6
  %.not55.us = icmp eq i32 %51, 0
  br i1 %.not55.us, label %.loopexit, label %52

52:                                               ; preds = %.lr.ph.split.us.split
  %53 = call i32 @EVP_DigestUpdate(ptr noundef %11, ptr noundef %2, i64 noundef %3) #6
  %.not56.us = icmp eq i32 %53, 0
  br i1 %.not56.us, label %.loopexit, label %54

54:                                               ; preds = %52
  %55 = call i32 @EVP_DigestUpdate(ptr noundef %11, ptr noundef nonnull %6, i64 noundef %7) #6
  %.not58.us = icmp eq i32 %55, 0
  br i1 %.not58.us, label %.loopexit, label %56

56:                                               ; preds = %54
  %57 = load i64, ptr %32, align 8, !tbaa !32
  %58 = icmp ult i64 %.0485.us, %57
  br i1 %58, label %.split.us, label %59

59:                                               ; preds = %56
  %60 = call i32 @EVP_DigestFinal(ptr noundef %11, ptr noundef %.0504.us, ptr noundef null) #6
  %.not59.us = icmp eq i32 %60, 0
  br i1 %.not59.us, label %.loopexit, label %61

61:                                               ; preds = %59
  %62 = load i64, ptr %32, align 8, !tbaa !32
  %63 = sub i64 %.0485.us, %62
  %64 = icmp eq i64 %63, 0
  br i1 %64, label %.loopexit, label %65

65:                                               ; preds = %61
  %66 = load i8, ptr %9, align 1, !tbaa !22
  %67 = add i8 %66, 1
  store i8 %67, ptr %9, align 1, !tbaa !22
  %68 = getelementptr inbounds nuw i8, ptr %.0504.us, i64 %62
  %69 = call ptr @ossl_prov_digest_md(ptr noundef nonnull %.240.val) #6
  %70 = call i32 @EVP_DigestInit_ex(ptr noundef %11, ptr noundef %69, ptr noundef null) #6
  %.not54.us = icmp eq i32 %70, 0
  br i1 %.not54.us, label %.loopexit, label %.lr.ph.split.us.split

.lr.ph.split:                                     ; preds = %.lr.ph
  br i1 %31, label %.lr.ph.split.split.us, label %.lr.ph.split.split

.lr.ph.split.split.us:                            ; preds = %.lr.ph.split, %85
  %.0485.us26 = phi i64 [ %83, %85 ], [ %.224.val, %.lr.ph.split ]
  %.0504.us27 = phi ptr [ %88, %85 ], [ %0, %.lr.ph.split ]
  %71 = call i32 @EVP_DigestUpdate(ptr noundef %11, ptr noundef nonnull %9, i64 noundef %.049) #6
  %.not55.us28 = icmp eq i32 %71, 0
  br i1 %.not55.us28, label %.loopexit, label %72

72:                                               ; preds = %.lr.ph.split.split.us
  %73 = call i32 @EVP_DigestUpdate(ptr noundef %11, ptr noundef %2, i64 noundef %3) #6
  %.not56.us29 = icmp eq i32 %73, 0
  br i1 %.not56.us29, label %.loopexit, label %74

74:                                               ; preds = %72
  %75 = call i32 @EVP_DigestUpdate(ptr noundef %11, ptr noundef nonnull %4, i64 noundef %5) #6
  %.not57.us = icmp eq i32 %75, 0
  br i1 %.not57.us, label %.loopexit, label %76

76:                                               ; preds = %74
  %77 = load i64, ptr %32, align 8, !tbaa !32
  %78 = icmp ult i64 %.0485.us26, %77
  br i1 %78, label %.split.us, label %79

79:                                               ; preds = %76
  %80 = call i32 @EVP_DigestFinal(ptr noundef %11, ptr noundef %.0504.us27, ptr noundef null) #6
  %.not59.us30 = icmp eq i32 %80, 0
  br i1 %.not59.us30, label %.loopexit, label %81

81:                                               ; preds = %79
  %82 = load i64, ptr %32, align 8, !tbaa !32
  %83 = sub i64 %.0485.us26, %82
  %84 = icmp eq i64 %83, 0
  br i1 %84, label %.loopexit, label %85

85:                                               ; preds = %81
  %86 = load i8, ptr %9, align 1, !tbaa !22
  %87 = add i8 %86, 1
  store i8 %87, ptr %9, align 1, !tbaa !22
  %88 = getelementptr inbounds nuw i8, ptr %.0504.us27, i64 %82
  %89 = call ptr @ossl_prov_digest_md(ptr noundef nonnull %.240.val) #6
  %90 = call i32 @EVP_DigestInit_ex(ptr noundef %11, ptr noundef %89, ptr noundef null) #6
  %.not54.us31 = icmp eq i32 %90, 0
  br i1 %.not54.us31, label %.loopexit, label %.lr.ph.split.split.us

.lr.ph.split.split:                               ; preds = %.lr.ph.split, %110
  %.0485 = phi i64 [ %108, %110 ], [ %.224.val, %.lr.ph.split ]
  %.0504 = phi ptr [ %113, %110 ], [ %0, %.lr.ph.split ]
  %91 = call i32 @EVP_DigestUpdate(ptr noundef %11, ptr noundef nonnull %9, i64 noundef %.049) #6
  %.not55 = icmp eq i32 %91, 0
  br i1 %.not55, label %.loopexit, label %92

92:                                               ; preds = %.lr.ph.split.split
  %93 = call i32 @EVP_DigestUpdate(ptr noundef %11, ptr noundef %2, i64 noundef %3) #6
  %.not56 = icmp eq i32 %93, 0
  br i1 %.not56, label %.loopexit, label %94

94:                                               ; preds = %92
  %95 = call i32 @EVP_DigestUpdate(ptr noundef %11, ptr noundef nonnull %4, i64 noundef %5) #6
  %.not57 = icmp eq i32 %95, 0
  br i1 %.not57, label %.loopexit, label %96

96:                                               ; preds = %94
  %97 = call i32 @EVP_DigestUpdate(ptr noundef %11, ptr noundef nonnull %6, i64 noundef %7) #6
  %.not58 = icmp eq i32 %97, 0
  br i1 %.not58, label %.loopexit, label %98

98:                                               ; preds = %96
  %99 = load i64, ptr %32, align 8, !tbaa !32
  %100 = icmp ult i64 %.0485, %99
  br i1 %100, label %.split.us, label %104

.split.us:                                        ; preds = %98, %76, %56, %36
  %.us-phi20 = phi ptr [ %.0504.us.us, %36 ], [ %.0504.us, %56 ], [ %.0504.us27, %76 ], [ %.0504, %98 ]
  %.us-phi21 = phi i64 [ %.0485.us.us, %36 ], [ %.0485.us, %56 ], [ %.0485.us26, %76 ], [ %.0485, %98 ]
  %101 = call i32 @EVP_DigestFinal(ptr noundef %11, ptr noundef nonnull %12, ptr noundef null) #6
  %.not60 = icmp eq i32 %101, 0
  br i1 %.not60, label %.loopexit, label %102

102:                                              ; preds = %.split.us
  call void @llvm.memcpy.p0.p0.i64(ptr align 1 %.us-phi20, ptr nonnull align 1 %12, i64 %.us-phi21, i1 false)
  %103 = load i64, ptr %32, align 8, !tbaa !32
  call void @OPENSSL_cleanse(ptr noundef nonnull %12, i64 noundef %103) #6
  br label %.loopexit

104:                                              ; preds = %98
  %105 = call i32 @EVP_DigestFinal(ptr noundef %11, ptr noundef %.0504, ptr noundef null) #6
  %.not59 = icmp eq i32 %105, 0
  br i1 %.not59, label %.loopexit, label %106

106:                                              ; preds = %104
  %107 = load i64, ptr %32, align 8, !tbaa !32
  %108 = sub i64 %.0485, %107
  %109 = icmp eq i64 %108, 0
  br i1 %109, label %.loopexit, label %110

110:                                              ; preds = %106
  %111 = load i8, ptr %9, align 1, !tbaa !22
  %112 = add i8 %111, 1
  store i8 %112, ptr %9, align 1, !tbaa !22
  %113 = getelementptr inbounds nuw i8, ptr %.0504, i64 %107
  %114 = call ptr @ossl_prov_digest_md(ptr noundef nonnull %.240.val) #6
  %115 = call i32 @EVP_DigestInit_ex(ptr noundef %11, ptr noundef %114, ptr noundef null) #6
  %.not54 = icmp eq i32 %115, 0
  br i1 %.not54, label %.loopexit, label %.lr.ph.split.split

.loopexit:                                        ; preds = %96, %94, %92, %.lr.ph.split.split, %110, %104, %106, %74, %72, %.lr.ph.split.split.us, %85, %79, %81, %54, %52, %.lr.ph.split.us.split, %65, %59, %61, %34, %.lr.ph.split.us.split.us, %45, %39, %41, %27, %102, %.split.us
  %.0 = phi i32 [ 0, %.split.us ], [ 1, %102 ], [ 0, %27 ], [ 0, %34 ], [ 0, %.lr.ph.split.us.split.us ], [ 0, %45 ], [ 0, %39 ], [ 1, %41 ], [ 0, %54 ], [ 0, %52 ], [ 0, %.lr.ph.split.us.split ], [ 0, %65 ], [ 0, %59 ], [ 1, %61 ], [ 0, %74 ], [ 0, %72 ], [ 0, %.lr.ph.split.split.us ], [ 0, %85 ], [ 0, %79 ], [ 1, %81 ], [ 0, %96 ], [ 0, %94 ], [ 0, %92 ], [ 0, %.lr.ph.split.split ], [ 0, %110 ], [ 0, %104 ], [ 1, %106 ]
  call void @llvm.lifetime.end.p0(i64 6, ptr nonnull %9) #6
  ret i32 %.0
}